; Function Attrs: nounwind uwtable
define void @Wln_RetInsertOneFanin(ptr noundef captures(none) %0, i32 noundef %1, i32 noundef %2) local_unnamed_addr #4 {
  %4 = getelementptr i8, ptr %0, i64 16
  %.val34 = load ptr, ptr %4, align 8, !tbaa !12
  %5 = sext i32 %1 to i64
  %6 = getelementptr inbounds i32, ptr %.val34, i64 %5
  %7 = load i32, ptr %6, align 4, !tbaa !13
  %8 = sext i32 %7 to i64
  %9 = getelementptr inbounds i32, ptr %.val34, i64 %8
  %10 = load ptr, ptr %0, align 8, !tbaa !3
  %11 = getelementptr i8, ptr %10, i64 88
  %.val3139 = load ptr, ptr %11, align 8, !tbaa !14
  %12 = getelementptr inbounds %struct.Wln_Vec_t_, ptr %.val3139, i64 %5, i32 1
  %13 = load i32, ptr %12, align 4, !tbaa !22
  %14 = icmp sgt i32 %13, 0
  br i1 %14, label %.lr.ph, label %.critedge

.lr.ph:                                           ; preds = %3
  %15 = getelementptr inbounds nuw i8, ptr %0, i64 40
  %16 = getelementptr i8, ptr %0, i64 44
  br label %17

17:                                               ; preds = %.lr.ph, %42
  %18 = phi ptr [ %10, %.lr.ph ], [ %43, %42 ]
  %indvars.iv = phi i64 [ 0, %.lr.ph ], [ %indvars.iv.next, %42 ]
  %.val3141 = phi ptr [ %.val3139, %.lr.ph ], [ %.val31, %42 ]
  %.val33 = load ptr, ptr %4, align 8, !tbaa !12
  %19 = getelementptr inbounds i32, ptr %.val33, i64 %5
  %20 = load i32, ptr %19, align 4, !tbaa !13
  %21 = sext i32 %20 to i64
  %22 = getelementptr inbounds i32, ptr %.val33, i64 %21
  %23 = shl nuw nsw i64 %indvars.iv, 1
  %24 = getelementptr inbounds nuw i32, ptr %22, i64 %23
  %25 = load i32, ptr %24, align 4, !tbaa !13
  %.not = icmp eq i32 %25, 0
  br i1 %.not, label %42, label %26

26:                                               ; preds = %17
  %27 = sext i32 %25 to i64
  %28 = getelementptr inbounds %struct.Wln_Vec_t_, ptr %.val3141, i64 %27, i32 1
  %29 = load i32, ptr %28, align 4, !tbaa !22
  %.not29 = icmp eq i32 %29, 0
  %30 = getelementptr i8, ptr %18, i64 80
  %.val35 = load ptr, ptr %30, align 8, !tbaa !12
  br i1 %.not29, label %31, label %._crit_edge

31:                                               ; preds = %26
  %32 = getelementptr inbounds i32, ptr %.val35, i64 %27
  %33 = load i32, ptr %32, align 4, !tbaa !13
  %.not38 = icmp eq i32 %33, 3
  br i1 %.not38, label %._crit_edge, label %42

._crit_edge:                                      ; preds = %26, %31
  %34 = getelementptr inbounds i32, ptr %.val35, i64 %5
  %35 = load i32, ptr %34, align 4, !tbaa !13
  %36 = icmp eq i32 %35, 89
  %37 = icmp ne i64 %indvars.iv, 0
  %or.cond = and i1 %37, %36
  br i1 %or.cond, label %42, label %38

38:                                               ; preds = %._crit_edge
  %39 = or disjoint i64 %23, 1
  %40 = getelementptr inbounds nuw i32, ptr %9, i64 %39
  %41 = load i32, ptr %40, align 4, !tbaa !13
  %.val36 = load i32, ptr %16, align 4, !tbaa !26
  store i32 %.val36, ptr %40, align 4, !tbaa !13
  tail call fastcc void @Vec_IntPushTwo(ptr noundef nonnull %15, i32 noundef %41, i32 noundef %2)
  %.pre = load ptr, ptr %0, align 8, !tbaa !3
  br label %42

42:                                               ; preds = %38, %31, %17, %._crit_edge
  %43 = phi ptr [ %.pre, %38 ], [ %18, %31 ], [ %18, %17 ], [ %18, %._crit_edge ]
  %indvars.iv.next = add nuw nsw i64 %indvars.iv, 1
  %44 = getelementptr i8, ptr %43, i64 88
  %.val31 = load ptr, ptr %44, align 8, !tbaa !14
  %45 = getelementptr inbounds %struct.Wln_Vec_t_, ptr %.val31, i64 %5, i32 1
  %46 = load i32, ptr %45, align 4, !tbaa !22
  %47 = sext i32 %46 to i64
  %48 = icmp slt i64 %indvars.iv.next, %47
  br i1 %48, label %17, label %.critedge, !llvm.loop !96

.critedge:                                        ; preds = %42, %3
  ret void
}